; Function Attrs: nounwind sspstrong uwtable
define internal i64 @string_to_r(i64 noundef %0) #0 {
  tail call void @rb_must_asciicompat(i64 noundef %0) #17
  %2 = inttoptr i64 %0 to ptr
  %3 = load i64, ptr %2, align 8, !tbaa !7, !noalias !47
  %4 = and i64 %3, 8192
  %.not.i.i = icmp eq i64 %4, 0
  %5 = getelementptr inbounds nuw i8, ptr %2, i64 24
  br i1 %.not.i.i, label %RSTRING_END.exit, label %6

6:                                                ; preds = %1
  %.sroa.2.0.copyload.i = load ptr, ptr %5, align 8
  br label %RSTRING_END.exit

RSTRING_END.exit:                                 ; preds = %1, %6
  %.sroa.5.0.i = phi ptr [ %.sroa.2.0.copyload.i, %6 ], [ %5, %1 ]
  %.sroa.3.0.in.i = getelementptr inbounds nuw i8, ptr %2, i64 16
  %.sroa.3.0.i = load i64, ptr %.sroa.3.0.in.i, align 8, !tbaa !18
  %7 = getelementptr i8, ptr %.sroa.5.0.i, i64 %.sroa.3.0.i
  %8 = tail call fastcc i64 @parse_rat(ptr noundef %.sroa.5.0.i, ptr noundef %7, i32 noundef 0, i32 noundef 1)
  %9 = and i64 %8, 3
  %10 = icmp eq i64 %9, 2
  br i1 %10, label %20, label %11

11:                                               ; preds = %RSTRING_END.exit
  %12 = icmp eq i64 %8, 0
  %13 = and i64 %8, 7
  %14 = icmp ne i64 %13, 0
  %15 = or i1 %12, %14
  br i1 %15, label %RB_FLOAT_TYPE_P.exit.thread10, label %RB_FLOAT_TYPE_P.exit

RB_FLOAT_TYPE_P.exit:                             ; preds = %11
  %16 = inttoptr i64 %8 to ptr
  %17 = load i64, ptr %16, align 8, !tbaa !7
  %18 = and i64 %17, 31
  %19 = icmp eq i64 %18, 4
  br i1 %19, label %27, label %RB_FLOAT_TYPE_P.exit.thread10

20:                                               ; preds = %RSTRING_END.exit
  %.not.i.i.i = icmp eq i64 %8, -9223372036854775806
  br i1 %.not.i.i.i, label %RB_FLOAT_TYPE_P.exit.thread10, label %21

21:                                               ; preds = %20
  %.neg.i.i.i = ashr i64 %8, 63
  %22 = add nsw i64 %.neg.i.i.i, 2
  %23 = and i64 %8, -4
  %24 = or i64 %22, %23
  %25 = tail call noundef i64 @llvm.fshl.i64(i64 range(i64 1, 0) %24, i64 range(i64 1, 0) %24, i64 61)
  %26 = bitcast i64 %25 to double
  br label %FLOAT_ZERO_P.exit

27:                                               ; preds = %RB_FLOAT_TYPE_P.exit
  %28 = getelementptr inbounds nuw i8, ptr %16, i64 16
  %29 = load double, ptr %28, align 8, !tbaa !22
  br label %FLOAT_ZERO_P.exit

FLOAT_ZERO_P.exit:                                ; preds = %21, %27
  %.0.i.i = phi double [ %29, %27 ], [ %26, %21 ]
  %30 = fcmp oeq double %.0.i.i, 0.000000e+00
  br i1 %30, label %RB_FLOAT_TYPE_P.exit.thread10, label %31

31:                                               ; preds = %FLOAT_ZERO_P.exit
  %32 = load i64, ptr @rb_eFloatDomainError, align 8, !tbaa !18
  tail call void (i64, ptr, ...) @rb_raise(i64 noundef %32, ptr noundef nonnull @.str.4) #20
  unreachable

RB_FLOAT_TYPE_P.exit.thread10:                    ; preds = %20, %11, %FLOAT_ZERO_P.exit, %RB_FLOAT_TYPE_P.exit
  ret i64 %8
}